target datalayout = "e-m:e-p270:32:32-p271:32:32-p272:64:64-i64:64-i128:128-f80:128-n8:16:32:64-S128"
target triple = "x86_64-unknown-linux-gnu"

%struct.BlockCopyState = type { ptr, ptr, i64, i64, i64, i32, %struct.CoMutex, i64, i32, %struct.BlockReqList, %struct.anon.0, i8, ptr, ptr, ptr, %struct.RateLimit }
%struct.CoMutex = type { i32, ptr, %struct.anon, %struct.anon, i32, i32, ptr }
%struct.anon = type { ptr }
%struct.BlockReqList = type { ptr }
%struct.anon.0 = type { ptr }
%struct.RateLimit = type { %struct.QemuMutex, i64, i64, i64, i64, i64 }
%struct.QemuMutex = type { %union.pthread_mutex_t, i8 }
%union.pthread_mutex_t = type { %struct.__pthread_mutex_s }
%struct.__pthread_mutex_s = type { i32, i32, i32, i32, i32, i16, i16, %struct.__pthread_internal_list }
%struct.__pthread_internal_list = type { ptr, ptr }

; Function Attrs: nounwind sspstrong uwtable
define dso_local void @block_copy_set_copy_opts(ptr noundef %s, i1 noundef zeroext %use_copy_range, i1 noundef zeroext %compress) #0 {
entry:
  %s.addr = alloca ptr, align 8
  %use_copy_range.addr = alloca i8, align 1
  %compress.addr = alloca i8, align 1
  store ptr %s, ptr %s.addr, align 8
  %frombool = zext i1 %use_copy_range to i8
  store i8 %frombool, ptr %use_copy_range.addr, align 1
  %frombool1 = zext i1 %compress to i8
  store i8 %frombool1, ptr %compress.addr, align 1
  %0 = load ptr, ptr %s.addr, align 8
  %write_flags = getelementptr inbounds %struct.BlockCopyState, ptr %0, i32 0, i32 5
  %1 = load i32, ptr %write_flags, align 8
  %and = and i32 %1, 128
  %2 = load i8, ptr %compress.addr, align 1
  %tobool = trunc i8 %2 to i1
  %cond = select i1 %tobool, i32 32, i32 0
  %or = or i32 %and, %cond
  %3 = load ptr, ptr %s.addr, align 8
  %write_flags2 = getelementptr inbounds %struct.BlockCopyState, ptr %3, i32 0, i32 5
  store i32 %or, ptr %write_flags2, align 8
  %4 = load ptr, ptr %s.addr, align 8
  %max_transfer = getelementptr inbounds %struct.BlockCopyState, ptr %4, i32 0, i32 3
  %5 = load i64, ptr %max_transfer, align 8
  %6 = load ptr, ptr %s.addr, align 8
  %cluster_size = getelementptr inbounds %struct.BlockCopyState, ptr %6, i32 0, i32 2
  %7 = load i64, ptr %cluster_size, align 8
  %cmp = icmp slt i64 %5, %7
  br i1 %cmp, label %if.then, label %if.else

if.then:                                          ; preds = %entry
  %8 = load ptr, ptr %s.addr, align 8
  %method = getelementptr inbounds %struct.BlockCopyState, ptr %8, i32 0, i32 8
  store i32 0, ptr %method, align 8
  br label %if.end10

if.else:                                          ; preds = %entry
  %9 = load i8, ptr %compress.addr, align 1
  %tobool3 = trunc i8 %9 to i1
  br i1 %tobool3, label %if.then4, label %if.else6

if.then4:                                         ; preds = %if.else
  %10 = load ptr, ptr %s.addr, align 8
  %method5 = getelementptr inbounds %struct.BlockCopyState, ptr %10, i32 0, i32 8
  store i32 0, ptr %method5, align 8
  br label %if.end

if.else6:                                         ; preds = %if.else
  %11 = load i8, ptr %use_copy_range.addr, align 1
  %tobool7 = trunc i8 %11 to i1
  %cond8 = select i1 %tobool7, i32 3, i32 1
  %12 = load ptr, ptr %s.addr, align 8
  %method9 = getelementptr inbounds %struct.BlockCopyState, ptr %12, i32 0, i32 8
  store i32 %cond8, ptr %method9, align 8
  br label %if.end

if.end:                                           ; preds = %if.else6, %if.then4
  br label %if.end10

if.end10:                                         ; preds = %if.end, %if.then
  ret void
}