; Function Attrs: mustprogress nofree norecurse nosync nounwind sspstrong willreturn memory(argmem: readwrite) uwtable
define dso_local void @block_copy_set_copy_opts(ptr noundef captures(none) initializes((104, 108)) %s, i1 noundef zeroext %use_copy_range, i1 noundef zeroext %compress) local_unnamed_addr #2 {
entry:
  %write_flags = getelementptr inbounds nuw i8, ptr %s, i64 40
  %0 = load i32, ptr %write_flags, align 8
  %and = and i32 %0, 128
  %cond = select i1 %compress, i32 32, i32 0
  %or = or disjoint i32 %and, %cond
  store i32 %or, ptr %write_flags, align 8
  %max_transfer = getelementptr inbounds nuw i8, ptr %s, i64 24
  %1 = load i64, ptr %max_transfer, align 8
  %cluster_size = getelementptr inbounds nuw i8, ptr %s, i64 16
  %2 = load i64, ptr %cluster_size, align 8
  %cmp = icmp slt i64 %1, %2
  %cond8 = select i1 %use_copy_range, i32 3, i32 1
  %3 = or i1 %cmp, %compress
  %.sink = select i1 %3, i32 0, i32 %cond8
  %method5 = getelementptr inbounds nuw i8, ptr %s, i64 104
  store i32 %.sink, ptr %method5, align 8
  ret void
}